target datalayout = "e-m:e-p270:32:32-p271:32:32-p272:64:64-i64:64-i128:128-f80:128-n8:16:32:64-S128"
target triple = "x86_64-pc-linux-gnu"

%struct.blf_params = type { ptr, ptr, ptr, i8, i8, ptr }
%struct.wtap_rec = type { i32, i32, i32, %struct.nstime_t, i32, %struct.nstime_t, i8, %union.anon, ptr, i8, %struct.Buffer, %struct.Buffer }
%struct.nstime_t = type { i64, i32 }
%union.anon = type { %struct.wtap_packet_header }
%struct.wtap_packet_header = type { i32, i32, i32, i32, %union.wtap_pseudo_header }
%union.wtap_pseudo_header = type { %struct.erf_mc_phdr }
%struct.erf_mc_phdr = type { %struct.erf_phdr, [16 x %struct.erf_ehdr], %union.anon.1 }
%struct.erf_phdr = type { i64, i8, i8, i16, i16, i16 }
%struct.erf_ehdr = type { i64 }
%union.anon.1 = type { i32 }
%struct.Buffer = type { ptr, i64, i64, i64 }
%struct.blf_flexraydata = type { i16, i8, i8, i16, i16, i8, i8, i16 }

@.str.65 = private unnamed_addr constant [64 x i8] c"blf: FLEXRAY_DATA: not enough bytes for flexrayheader in object\00", align 1

; Function Attrs: null_pointer_is_valid sspstrong uwtable
define internal void @blf_add_direction_option(ptr noundef %0, i16 noundef zeroext %1) #2 {
  %3 = alloca ptr, align 8
  %4 = alloca i16, align 2
  %5 = alloca i32, align 4
  store ptr %0, ptr %3, align 8
  store i16 %1, ptr %4, align 2
  call void @llvm.lifetime.start.p0(i64 4, ptr %5) #13
  store i32 0, ptr %5, align 4
  %6 = load i16, ptr %4, align 2
  %7 = zext i16 %6 to i32
  switch i32 %7, label %10 [
    i32 0, label %8
    i32 1, label %9
    i32 2, label %9
  ]

8:                                                ; preds = %2
  store i32 1, ptr %5, align 4
  br label %10

9:                                                ; preds = %2, %2
  store i32 2, ptr %5, align 4
  br label %10

10:                                               ; preds = %2, %9, %8
  %11 = load ptr, ptr %3, align 8
  %12 = getelementptr inbounds nuw %struct.blf_params, ptr %11, i32 0, i32 1
  %13 = load ptr, ptr %12, align 8
  %14 = getelementptr inbounds nuw %struct.wtap_rec, ptr %13, i32 0, i32 8
  %15 = load ptr, ptr %14, align 8
  %16 = load i32, ptr %5, align 4
  %17 = call i32 @wtap_block_add_uint32_option(ptr noundef %15, i32 noundef 2, i32 noundef %16)
  call void @llvm.lifetime.end.p0(i64 4, ptr %5) #13
  ret void
}

; Function Attrs: inlinehint nounwind null_pointer_is_valid sspstrong uwtable
define internal void @ws_buffer_increase_length(ptr noundef %0, i64 noundef %1) #12 {
  %3 = alloca ptr, align 8
  %4 = alloca i64, align 8
  store ptr %0, ptr %3, align 8
  store i64 %1, ptr %4, align 8
  %5 = load i64, ptr %4, align 8
  %6 = load ptr, ptr %3, align 8
  %7 = getelementptr inbounds nuw %struct.Buffer, ptr %6, i32 0, i32 3
  %8 = load i64, ptr %7, align 8
  %9 = add i64 %8, %5
  store i64 %9, ptr %7, align 8
  ret void
}

; Function Attrs: inlinehint nounwind null_pointer_is_valid sspstrong uwtable
define internal ptr @ws_buffer_end_ptr(ptr noundef %0) #12 {
  %2 = alloca ptr, align 8
  store ptr %0, ptr %2, align 8
  %3 = load ptr, ptr %2, align 8
  %4 = getelementptr inbounds nuw %struct.Buffer, ptr %3, i32 0, i32 0
  %5 = load ptr, ptr %4, align 8
  %6 = load ptr, ptr %2, align 8
  %7 = getelementptr inbounds nuw %struct.Buffer, ptr %6, i32 0, i32 3
  %8 = load i64, ptr %7, align 8
  %9 = getelementptr i8, ptr %5, i64 %8
  ret ptr %9
}

; Function Attrs: nounwind null_pointer_is_valid sspstrong uwtable
define internal void @fix_endianness_blf_flexraydata(ptr noundef %0) #0 {
  %2 = alloca ptr, align 8
  store ptr %0, ptr %2, align 8
  %3 = load ptr, ptr %2, align 8
  %4 = getelementptr inbounds nuw %struct.blf_flexraydata, ptr %3, i32 0, i32 0
  %5 = load i16, ptr %4, align 2
  %6 = load ptr, ptr %2, align 8
  %7 = getelementptr inbounds nuw %struct.blf_flexraydata, ptr %6, i32 0, i32 0
  store i16 %5, ptr %7, align 2
  %8 = load ptr, ptr %2, align 8
  %9 = getelementptr inbounds nuw %struct.blf_flexraydata, ptr %8, i32 0, i32 3
  %10 = load i16, ptr %9, align 2
  %11 = load ptr, ptr %2, align 8
  %12 = getelementptr inbounds nuw %struct.blf_flexraydata, ptr %11, i32 0, i32 3
  store i16 %10, ptr %12, align 2
  %13 = load ptr, ptr %2, align 8
  %14 = getelementptr inbounds nuw %struct.blf_flexraydata, ptr %13, i32 0, i32 4
  %15 = load i16, ptr %14, align 2
  %16 = load ptr, ptr %2, align 8
  %17 = getelementptr inbounds nuw %struct.blf_flexraydata, ptr %16, i32 0, i32 4
  store i16 %15, ptr %17, align 2
  %18 = load ptr, ptr %2, align 8
  %19 = getelementptr inbounds nuw %struct.blf_flexraydata, ptr %18, i32 0, i32 7
  %20 = load i16, ptr %19, align 2
  %21 = load ptr, ptr %2, align 8
  %22 = getelementptr inbounds nuw %struct.blf_flexraydata, ptr %21, i32 0, i32 7
  store i16 %20, ptr %22, align 2
  ret void
}

; Function Attrs: null_pointer_is_valid sspstrong uwtable
define internal zeroext i1 @blf_read_bytes(ptr noundef %0, i64 noundef %1, ptr noundef %2, i64 noundef %3, ptr noundef %4, ptr noundef %5) #2 {
  %7 = alloca i1, align 1
  %8 = alloca ptr, align 8
  %9 = alloca i64, align 8
  %10 = alloca ptr, align 8
  %11 = alloca i64, align 8
  %12 = alloca ptr, align 8
  %13 = alloca ptr, align 8
  store ptr %0, ptr %8, align 8
  store i64 %1, ptr %9, align 8
  store ptr %2, ptr %10, align 8
  store i64 %3, ptr %11, align 8
  store ptr %4, ptr %12, align 8
  store ptr %5, ptr %13, align 8
  %14 = load ptr, ptr %8, align 8
  %15 = load i64, ptr %9, align 8
  %16 = load ptr, ptr %10, align 8
  %17 = load i64, ptr %11, align 8
  %18 = load ptr, ptr %12, align 8
  %19 = load ptr, ptr %13, align 8
  %20 = call zeroext i1 @blf_read_bytes_or_eof(ptr noundef %14, i64 noundef %15, ptr noundef %16, i64 noundef %17, ptr noundef %18, ptr noundef %19)
  br i1 %20, label %28, label %21

21:                                               ; preds = %6
  %22 = load ptr, ptr %12, align 8
  %23 = load i32, ptr %22, align 4
  %24 = icmp eq i32 %23, 0
  br i1 %24, label %25, label %27

25:                                               ; preds = %21
  %26 = load ptr, ptr %12, align 8
  store i32 -12, ptr %26, align 4
  br label %27

27:                                               ; preds = %25, %21
  store i1 false, ptr %7, align 1
  br label %29

28:                                               ; preds = %6
  store i1 true, ptr %7, align 1
  br label %29

29:                                               ; preds = %28, %27
  %30 = load i1, ptr %7, align 1
  ret i1 %30
}

; Function Attrs: null_pointer_is_valid sspstrong uwtable
define internal zeroext i1 @blf_read_flexraydata(ptr noundef %0, ptr noundef %1, ptr noundef %2, i64 noundef %3, i64 noundef %4, i64 noundef %5, i32 noundef %6, i64 noundef %7) #2 {
  %9 = alloca i1, align 1
  %10 = alloca ptr, align 8
  %11 = alloca ptr, align 8
  %12 = alloca ptr, align 8
  %13 = alloca i64, align 8
  %14 = alloca i64, align 8
  %15 = alloca i64, align 8
  %16 = alloca i32, align 4
  %17 = alloca i64, align 8
  %18 = alloca %struct.blf_flexraydata, align 2
  %19 = alloca i8, align 1
  %20 = alloca i8, align 1
  %21 = alloca [7 x i8], align 1
  %22 = alloca i32, align 4
  %23 = alloca i32, align 4
  %24 = alloca i32, align 4
  store ptr %0, ptr %10, align 8
  store ptr %1, ptr %11, align 8
  store ptr %2, ptr %12, align 8
  store i64 %3, ptr %13, align 8
  store i64 %4, ptr %14, align 8
  store i64 %5, ptr %15, align 8
  store i32 %6, ptr %16, align 4
  store i64 %7, ptr %17, align 8
  call void @llvm.lifetime.start.p0(i64 12, ptr %18) #13
  call void @llvm.lifetime.start.p0(i64 1, ptr %19) #13
  call void @llvm.lifetime.start.p0(i64 1, ptr %20) #13
  call void @llvm.lifetime.start.p0(i64 7, ptr %21) #13
  call void @llvm.lifetime.start.p0(i64 4, ptr %22) #13
  call void @llvm.lifetime.start.p0(i64 4, ptr %23) #13
  %25 = load i64, ptr %15, align 8
  %26 = load i64, ptr %14, align 8
  %27 = load i64, ptr %13, align 8
  %28 = sub i64 %26, %27
  %29 = add i64 %28, 12
  %30 = icmp slt i64 %25, %29
  br i1 %30, label %31, label %38

31:                                               ; preds = %8
  %32 = load ptr, ptr %11, align 8
  store i32 -13, ptr %32, align 4
  %33 = call noalias ptr @wmem_strdup(ptr noundef null, ptr noundef @.str.65)
  %34 = load ptr, ptr %12, align 8
  store ptr %33, ptr %34, align 8
  br label %35

35:                                               ; preds = %31
  br label %36

36:                                               ; preds = %35
  br label %37

37:                                               ; preds = %36
  store i1 false, ptr %9, align 1
  store i32 1, ptr %24, align 4
  br label %211

38:                                               ; preds = %8
  %39 = load ptr, ptr %10, align 8
  %40 = load i64, ptr %14, align 8
  %41 = load ptr, ptr %11, align 8
  %42 = load ptr, ptr %12, align 8
  %43 = call zeroext i1 @blf_read_bytes(ptr noundef %39, i64 noundef %40, ptr noundef %18, i64 noundef 12, ptr noundef %41, ptr noundef %42)
  br i1 %43, label %48, label %44

44:                                               ; preds = %38
  br label %45

45:                                               ; preds = %44
  br label %46

46:                                               ; preds = %45
  br label %47

47:                                               ; preds = %46
  store i1 false, ptr %9, align 1
  store i32 1, ptr %24, align 4
  br label %211

48:                                               ; preds = %38
  call void @fix_endianness_blf_flexraydata(ptr noundef %18)
  %49 = getelementptr inbounds nuw %struct.blf_flexraydata, ptr %18, i32 0, i32 2
  %50 = load i8, ptr %49, align 1
  store i8 %50, ptr %19, align 1
  %51 = load i8, ptr %19, align 1
  store i8 %51, ptr %20, align 1
  %52 = getelementptr inbounds nuw %struct.blf_flexraydata, ptr %18, i32 0, i32 2
  %53 = load i8, ptr %52, align 1
  %54 = zext i8 %53 to i32
  %55 = and i32 %54, 1
  %56 = icmp eq i32 %55, 1
  br i1 %56, label %57, label %61

57:                                               ; preds = %48
  br label %58

58:                                               ; preds = %57
  br label %59

59:                                               ; preds = %58
  br label %60

60:                                               ; preds = %59
  br label %61

61:                                               ; preds = %60, %48
  %62 = load i8, ptr %20, align 1
  %63 = zext i8 %62 to i64
  %64 = load i64, ptr %15, align 8
  %65 = load i64, ptr %14, align 8
  %66 = load i64, ptr %13, align 8
  %67 = sub i64 %65, %66
  %68 = sub i64 %64, %67
  %69 = sub i64 %68, 12
  %70 = icmp ugt i64 %63, %69
  br i1 %70, label %71, label %82

71:                                               ; preds = %61
  br label %72

72:                                               ; preds = %71
  br label %73

73:                                               ; preds = %72
  br label %74

74:                                               ; preds = %73
  %75 = load i64, ptr %15, align 8
  %76 = load i64, ptr %14, align 8
  %77 = load i64, ptr %13, align 8
  %78 = sub i64 %76, %77
  %79 = sub i64 %75, %78
  %80 = sub i64 %79, 12
  %81 = trunc i64 %80 to i8
  store i8 %81, ptr %20, align 1
  br label %82

82:                                               ; preds = %74, %61
  %83 = getelementptr inbounds nuw %struct.blf_flexraydata, ptr %18, i32 0, i32 0
  %84 = load i16, ptr %83, align 2
  %85 = zext i16 %84 to i32
  %86 = icmp ne i32 %85, 0
  br i1 %86, label %87, label %96

87:                                               ; preds = %82
  %88 = getelementptr inbounds nuw %struct.blf_flexraydata, ptr %18, i32 0, i32 0
  %89 = load i16, ptr %88, align 2
  %90 = zext i16 %89 to i32
  %91 = icmp ne i32 %90, 1
  br i1 %91, label %92, label %96

92:                                               ; preds = %87
  br label %93

93:                                               ; preds = %92
  br label %94

94:                                               ; preds = %93
  br label %95

95:                                               ; preds = %94
  br label %96

96:                                               ; preds = %95, %87, %82
  %97 = getelementptr inbounds nuw %struct.blf_flexraydata, ptr %18, i32 0, i32 0
  %98 = load i16, ptr %97, align 2
  %99 = zext i16 %98 to i32
  %100 = icmp eq i32 %99, 0
  br i1 %100, label %101, label %103

101:                                              ; preds = %96
  %102 = getelementptr [7 x i8], ptr %21, i64 0, i64 0
  store i8 1, ptr %102, align 1
  br label %105

103:                                              ; preds = %96
  %104 = getelementptr [7 x i8], ptr %21, i64 0, i64 0
  store i8 -127, ptr %104, align 1
  br label %105

105:                                              ; preds = %103, %101
  %106 = getelementptr [7 x i8], ptr %21, i64 0, i64 1
  store i8 0, ptr %106, align 1
  %107 = getelementptr inbounds nuw %struct.blf_flexraydata, ptr %18, i32 0, i32 3
  %108 = load i16, ptr %107, align 2
  %109 = zext i16 %108 to i32
  %110 = and i32 1792, %109
  %111 = ashr i32 %110, 8
  %112 = or i32 32, %111
  %113 = trunc i32 %112 to i8
  %114 = getelementptr [7 x i8], ptr %21, i64 0, i64 2
  store i8 %113, ptr %114, align 1
  %115 = getelementptr inbounds nuw %struct.blf_flexraydata, ptr %18, i32 0, i32 3
  %116 = load i16, ptr %115, align 2
  %117 = zext i16 %116 to i32
  %118 = and i32 255, %117
  %119 = trunc i32 %118 to i8
  %120 = getelementptr [7 x i8], ptr %21, i64 0, i64 3
  store i8 %119, ptr %120, align 1
  %121 = getelementptr inbounds nuw %struct.blf_flexraydata, ptr %18, i32 0, i32 2
  %122 = load i8, ptr %121, align 1
  %123 = zext i8 %122 to i32
  %124 = and i32 254, %123
  %125 = getelementptr inbounds nuw %struct.blf_flexraydata, ptr %18, i32 0, i32 4
  %126 = load i16, ptr %125, align 2
  %127 = zext i16 %126 to i32
  %128 = and i32 %127, 1024
  %129 = ashr i32 %128, 10
  %130 = or i32 %124, %129
  %131 = trunc i32 %130 to i8
  %132 = getelementptr [7 x i8], ptr %21, i64 0, i64 4
  store i8 %131, ptr %132, align 1
  %133 = getelementptr inbounds nuw %struct.blf_flexraydata, ptr %18, i32 0, i32 4
  %134 = load i16, ptr %133, align 2
  %135 = zext i16 %134 to i32
  %136 = and i32 1020, %135
  %137 = ashr i32 %136, 2
  %138 = trunc i32 %137 to i8
  %139 = getelementptr [7 x i8], ptr %21, i64 0, i64 5
  store i8 %138, ptr %139, align 1
  %140 = getelementptr inbounds nuw %struct.blf_flexraydata, ptr %18, i32 0, i32 4
  %141 = load i16, ptr %140, align 2
  %142 = zext i16 %141 to i32
  %143 = and i32 3, %142
  %144 = shl i32 %143, 6
  %145 = getelementptr inbounds nuw %struct.blf_flexraydata, ptr %18, i32 0, i32 1
  %146 = load i8, ptr %145, align 2
  %147 = zext i8 %146 to i32
  %148 = and i32 63, %147
  %149 = or i32 %144, %148
  %150 = trunc i32 %149 to i8
  %151 = getelementptr [7 x i8], ptr %21, i64 0, i64 6
  store i8 %150, ptr %151, align 1
  %152 = load ptr, ptr %10, align 8
  %153 = getelementptr inbounds nuw %struct.blf_params, ptr %152, i32 0, i32 1
  %154 = load ptr, ptr %153, align 8
  %155 = getelementptr inbounds nuw %struct.wtap_rec, ptr %154, i32 0, i32 11
  %156 = load i8, ptr %20, align 1
  %157 = zext i8 %156 to i64
  %158 = add i64 7, %157
  call void @ws_buffer_assure_space(ptr noundef %155, i64 noundef %158)
  %159 = load ptr, ptr %10, align 8
  %160 = getelementptr inbounds nuw %struct.blf_params, ptr %159, i32 0, i32 1
  %161 = load ptr, ptr %160, align 8
  %162 = getelementptr inbounds nuw %struct.wtap_rec, ptr %161, i32 0, i32 11
  %163 = getelementptr inbounds [7 x i8], ptr %21, i64 0, i64 0
  call void @ws_buffer_append(ptr noundef %162, ptr noundef %163, i64 noundef 7)
  %164 = load i8, ptr %20, align 1
  %165 = zext i8 %164 to i64
  %166 = add i64 7, %165
  %167 = trunc i64 %166 to i32
  store i32 %167, ptr %22, align 4
  %168 = load i8, ptr %19, align 1
  %169 = zext i8 %168 to i64
  %170 = add i64 7, %169
  %171 = trunc i64 %170 to i32
  store i32 %171, ptr %23, align 4
  %172 = load i8, ptr %20, align 1
  %173 = zext i8 %172 to i32
  %174 = icmp sgt i32 %173, 0
  br i1 %174, label %175, label %193

175:                                              ; preds = %105
  %176 = load ptr, ptr %10, align 8
  %177 = load i64, ptr %14, align 8
  %178 = add i64 %177, 12
  %179 = load ptr, ptr %10, align 8
  %180 = getelementptr inbounds nuw %struct.blf_params, ptr %179, i32 0, i32 1
  %181 = load ptr, ptr %180, align 8
  %182 = getelementptr inbounds nuw %struct.wtap_rec, ptr %181, i32 0, i32 11
  %183 = call ptr @ws_buffer_end_ptr(ptr noundef %182)
  %184 = load i8, ptr %20, align 1
  %185 = zext i8 %184 to i64
  %186 = load ptr, ptr %11, align 8
  %187 = load ptr, ptr %12, align 8
  %188 = call zeroext i1 @blf_read_bytes(ptr noundef %176, i64 noundef %178, ptr noundef %183, i64 noundef %185, ptr noundef %186, ptr noundef %187)
  br i1 %188, label %193, label %189

189:                                              ; preds = %175
  br label %190

190:                                              ; preds = %189
  br label %191

191:                                              ; preds = %190
  br label %192

192:                                              ; preds = %191
  store i1 false, ptr %9, align 1
  store i32 1, ptr %24, align 4
  br label %211

193:                                              ; preds = %175, %105
  %194 = load ptr, ptr %10, align 8
  %195 = getelementptr inbounds nuw %struct.blf_params, ptr %194, i32 0, i32 1
  %196 = load ptr, ptr %195, align 8
  %197 = getelementptr inbounds nuw %struct.wtap_rec, ptr %196, i32 0, i32 11
  %198 = load i8, ptr %20, align 1
  %199 = zext i8 %198 to i64
  call void @ws_buffer_increase_length(ptr noundef %197, i64 noundef %199)
  %200 = load ptr, ptr %10, align 8
  %201 = load i32, ptr %16, align 4
  %202 = load i64, ptr %17, align 8
  %203 = getelementptr inbounds nuw %struct.blf_flexraydata, ptr %18, i32 0, i32 0
  %204 = load i16, ptr %203, align 2
  %205 = load i32, ptr %22, align 4
  %206 = load i32, ptr %23, align 4
  call void @blf_init_rec(ptr noundef %200, i32 noundef %201, i64 noundef %202, i32 noundef 106, i16 noundef zeroext %204, i16 noundef zeroext -1, i32 noundef %205, i32 noundef %206)
  %207 = load ptr, ptr %10, align 8
  %208 = getelementptr inbounds nuw %struct.blf_flexraydata, ptr %18, i32 0, i32 5
  %209 = load i8, ptr %208, align 2
  %210 = zext i8 %209 to i16
  call void @blf_add_direction_option(ptr noundef %207, i16 noundef zeroext %210)
  store i1 true, ptr %9, align 1
  store i32 1, ptr %24, align 4
  br label %211

211:                                              ; preds = %193, %192, %47, %37
  call void @llvm.lifetime.end.p0(i64 4, ptr %23) #13
  call void @llvm.lifetime.end.p0(i64 4, ptr %22) #13
  call void @llvm.lifetime.end.p0(i64 7, ptr %21) #13
  call void @llvm.lifetime.end.p0(i64 1, ptr %20) #13
  call void @llvm.lifetime.end.p0(i64 1, ptr %19) #13
  call void @llvm.lifetime.end.p0(i64 12, ptr %18) #13
  %212 = load i1, ptr %9, align 1
  ret i1 %212
}