; Function Attrs: null_pointer_is_valid sspstrong uwtable
define internal fastcc noundef zeroext i1 @blf_read_flexraydata(ptr noundef readonly captures(none) %0, ptr noundef %1, ptr noundef %2, i64 noundef %3, i64 noundef %4, i64 noundef range(i64 0, 4294967296) %5, i32 noundef %6, i64 noundef %7) unnamed_addr #2 {
  %9 = alloca %struct.blf_flexraydata, align 2
  %10 = alloca [7 x i8], align 1
  call void @llvm.lifetime.start.p0(i64 12, ptr nonnull %9) #14
  call void @llvm.lifetime.start.p0(i64 7, ptr nonnull %10) #14
  %11 = sub i64 %4, %3
  %12 = add i64 %11, 12
  %13 = icmp slt i64 %5, %12
  br i1 %13, label %14, label %16

14:                                               ; preds = %8
  store i32 -13, ptr %1, align 4
  %15 = tail call noalias ptr @wmem_strdup(ptr noundef null, ptr noundef nonnull @.str.65)
  store ptr %15, ptr %2, align 8
  br label %blf_read_bytes.exit.thread

16:                                               ; preds = %8
  %17 = call fastcc zeroext i1 @blf_read_bytes_or_eof(ptr noundef readonly %0, i64 noundef %4, ptr noundef nonnull %9, i64 noundef 12, ptr noundef %1, ptr noundef %2)
  br i1 %17, label %blf_read_bytes.exit, label %18

18:                                               ; preds = %16
  %19 = load i32, ptr %1, align 4
  %20 = icmp eq i32 %19, 0
  br i1 %20, label %21, label %blf_read_bytes.exit.thread

21:                                               ; preds = %18
  store i32 -12, ptr %1, align 4
  br label %blf_read_bytes.exit.thread

blf_read_bytes.exit:                              ; preds = %16
  %22 = getelementptr inbounds nuw i8, ptr %9, i64 3
  %23 = load i8, ptr %22, align 1
  %24 = zext i8 %23 to i64
  %reass.sub = sub i64 %5, %11
  %25 = add i64 %reass.sub, -12
  %spec.select45 = call i64 @llvm.umin.i64(i64 %25, i64 %24)
  %26 = load i16, ptr %9, align 2
  %27 = icmp eq i16 %26, 0
  %storemerge = select i1 %27, i8 1, i8 -127
  store i8 %storemerge, ptr %10, align 1
  %28 = getelementptr inbounds nuw i8, ptr %10, i64 1
  store i8 0, ptr %28, align 1
  %29 = getelementptr inbounds nuw i8, ptr %9, i64 4
  %30 = load i16, ptr %29, align 2
  %31 = lshr i16 %30, 8
  %32 = trunc nuw i16 %31 to i8
  %33 = and i8 %32, 7
  %34 = or disjoint i8 %33, 32
  %35 = getelementptr inbounds nuw i8, ptr %10, i64 2
  store i8 %34, ptr %35, align 1
  %36 = trunc i16 %30 to i8
  %37 = getelementptr inbounds nuw i8, ptr %10, i64 3
  store i8 %36, ptr %37, align 1
  %38 = and i8 %23, -2
  %39 = getelementptr inbounds nuw i8, ptr %9, i64 6
  %40 = load i16, ptr %39, align 2
  %41 = lshr i16 %40, 10
  %42 = trunc nuw nsw i16 %41 to i8
  %43 = and i8 %42, 1
  %44 = or disjoint i8 %43, %38
  %45 = getelementptr inbounds nuw i8, ptr %10, i64 4
  store i8 %44, ptr %45, align 1
  %46 = lshr i16 %40, 2
  %47 = trunc i16 %46 to i8
  %48 = getelementptr inbounds nuw i8, ptr %10, i64 5
  store i8 %47, ptr %48, align 1
  %49 = getelementptr inbounds nuw i8, ptr %9, i64 2
  %50 = load i8, ptr %49, align 2
  %51 = and i8 %50, 63
  %.tr = trunc i16 %40 to i8
  %52 = shl i8 %.tr, 6
  %53 = or disjoint i8 %51, %52
  %54 = getelementptr inbounds nuw i8, ptr %10, i64 6
  store i8 %53, ptr %54, align 1
  %55 = getelementptr inbounds nuw i8, ptr %0, i64 8
  %56 = load ptr, ptr %55, align 8
  %57 = getelementptr inbounds nuw i8, ptr %56, i64 280
  %58 = add nuw nsw i64 %spec.select45, 7
  call void @ws_buffer_assure_space(ptr noundef nonnull %57, i64 noundef %58)
  %59 = load ptr, ptr %55, align 8
  %60 = getelementptr inbounds nuw i8, ptr %59, i64 280
  call void @ws_buffer_append(ptr noundef nonnull %60, ptr noundef nonnull %10, i64 noundef 7)
  %61 = trunc nuw nsw i64 %58 to i32
  %62 = zext i8 %23 to i32
  %63 = add nuw nsw i32 %62, 7
  %.not = icmp eq i64 %spec.select45, 0
  br i1 %.not, label %blf_read_bytes.exit44, label %64

64:                                               ; preds = %blf_read_bytes.exit
  %65 = add i64 %4, 12
  %66 = load ptr, ptr %55, align 8
  %67 = getelementptr inbounds nuw i8, ptr %66, i64 280
  %.val = load ptr, ptr %67, align 8
  %68 = getelementptr i8, ptr %66, i64 304
  %.val43 = load i64, ptr %68, align 8
  %69 = getelementptr i8, ptr %.val, i64 %.val43
  %70 = call fastcc zeroext i1 @blf_read_bytes_or_eof(ptr noundef readonly %0, i64 noundef %65, ptr noundef %69, i64 noundef range(i64 0, 4294967296) %spec.select45, ptr noundef %1, ptr noundef %2)
  br i1 %70, label %blf_read_bytes.exit44, label %71

71:                                               ; preds = %64
  %72 = load i32, ptr %1, align 4
  %73 = icmp eq i32 %72, 0
  br i1 %73, label %74, label %blf_read_bytes.exit.thread

74:                                               ; preds = %71
  store i32 -12, ptr %1, align 4
  br label %blf_read_bytes.exit.thread

blf_read_bytes.exit44:                            ; preds = %64, %blf_read_bytes.exit
  %75 = load ptr, ptr %55, align 8
  %76 = getelementptr inbounds nuw i8, ptr %75, i64 304
  %77 = load i64, ptr %76, align 8
  %78 = add i64 %77, %spec.select45
  store i64 %78, ptr %76, align 8
  %79 = load i16, ptr %9, align 2
  call fastcc void @blf_init_rec(ptr noundef %0, i32 noundef %6, i64 noundef %7, i32 noundef 106, i16 noundef zeroext %79, i16 noundef zeroext -1, i32 noundef %61, i32 noundef %63)
  %80 = getelementptr inbounds nuw i8, ptr %9, i64 8
  %81 = load i8, ptr %80, align 2
  %82 = icmp ult i8 %81, 3
  br i1 %82, label %switch.lookup, label %blf_add_direction_option.exit

switch.lookup:                                    ; preds = %blf_read_bytes.exit44
  %83 = zext nneg i8 %81 to i64
  %switch.gep = getelementptr inbounds nuw [3 x i32], ptr @switch.table.blf_read_lincrcerror2, i64 0, i64 %83
  %switch.load = load i32, ptr %switch.gep, align 4
  br label %blf_add_direction_option.exit

blf_add_direction_option.exit:                    ; preds = %switch.lookup, %blf_read_bytes.exit44
  %.0.i = phi i32 [ 0, %blf_read_bytes.exit44 ], [ %switch.load, %switch.lookup ]
  %84 = load ptr, ptr %55, align 8
  %85 = getelementptr inbounds nuw i8, ptr %84, i64 232
  %86 = load ptr, ptr %85, align 8
  %87 = call i32 @wtap_block_add_uint32_option(ptr noundef %86, i32 noundef 2, i32 noundef %.0.i)
  br label %blf_read_bytes.exit.thread

blf_read_bytes.exit.thread:                       ; preds = %74, %71, %21, %18, %blf_add_direction_option.exit, %14
  %.0 = phi i1 [ false, %14 ], [ true, %blf_add_direction_option.exit ], [ false, %18 ], [ false, %21 ], [ false, %71 ], [ false, %74 ]
  call void @llvm.lifetime.end.p0(i64 7, ptr nonnull %10) #14
  call void @llvm.lifetime.end.p0(i64 12, ptr nonnull %9) #14
  ret i1 %.0
}